target datalayout = "e-m:e-p270:32:32-p271:32:32-p272:64:64-i64:64-i128:128-f80:128-n8:16:32:64-S128"
target triple = "x86_64-pc-linux-gnu"

%struct.H5CX_dxpl_cache_t = type { i64, ptr, ptr, i32, [3 x double], i64, i32, %struct.H5Z_cb_t, ptr, %struct.H5T_vlen_alloc_info_t, %struct.H5T_conv_cb_t, i32, i32, i32, i8 }
%struct.H5Z_cb_t = type { ptr, ptr }
%struct.H5T_vlen_alloc_info_t = type { ptr, ptr, ptr, ptr }
%struct.H5T_conv_cb_t = type { ptr, ptr }
%struct.H5CX_node_t = type { %struct.H5CX_t, ptr }
%struct.H5CX_t = type { i64, ptr, i64, ptr, i64, ptr, i64, ptr, i64, ptr, i64, ptr, i64, i32, i64, i8, ptr, i8, ptr, i8, i32, i8, [3 x double], i8, i64, i8, i32, i8, %struct.H5Z_cb_t, i8, ptr, i8, %struct.H5T_vlen_alloc_info_t, i8, %struct.H5T_conv_cb_t, i8, i32, i8, i8, i8, i32, i8, i8, i32, i8, i8, i32, i8, i32, i8, i64, i8, i8, i8, i8, i8, ptr, i8, ptr, i8, i32, i8, i32, i8, %struct.H5VL_connector_prop_t, i8, ptr, i8 }
%struct.H5VL_connector_prop_t = type { i64, ptr }

@H5CX_def_dxpl_cache = internal global %struct.H5CX_dxpl_cache_t zeroinitializer, align 8
@H5P_LST_DATASET_XFER_ID_g = external global i64, align 8
@.str = private unnamed_addr constant [98 x i8] c"generated/home/dtcxzyw/WorkSpace/Projects/compilers/llvm-opt-benchmark/bench/hdf5/hdf5/src/H5CX.c\00", align 1
@H5E_CONTEXT_g = external global i64, align 8
@H5E_BADTYPE_g = external global i64, align 8
@H5E_CANTGET_g = external global i64, align 8
@.str.31 = private unnamed_addr constant [25 x i8] c"actual_selection_io_mode\00", align 1
@H5CX_head_g = internal global ptr null, align 8
@.str.56 = private unnamed_addr constant [24 x i8] c"can't get property list\00", align 1
@.str.75 = private unnamed_addr constant [38 x i8] c"can't retrieve value from API context\00", align 1
@__func__.H5CX_get_actual_selection_io_mode = private unnamed_addr constant [34 x i8] c"H5CX_get_actual_selection_io_mode\00", align 1

; Function Attrs: nounwind uwtable
define i32 @H5CX_get_actual_selection_io_mode(ptr noundef %0) #0 {
  %2 = alloca ptr, align 8
  %3 = alloca ptr, align 8
  %4 = alloca i32, align 4
  %5 = alloca i8, align 1
  store ptr %0, ptr %2, align 8
  store ptr null, ptr %3, align 8
  store i32 0, ptr %4, align 4
  store i8 0, ptr %5, align 1
  store ptr @H5CX_head_g, ptr %3, align 8
  %6 = load ptr, ptr %3, align 8
  %7 = load ptr, ptr %6, align 8
  %8 = getelementptr inbounds %struct.H5CX_node_t, ptr %7, i32 0, i32 0
  %9 = getelementptr inbounds %struct.H5CX_t, ptr %8, i32 0, i32 0
  %10 = load i64, ptr %9, align 8
  %11 = load i64, ptr @H5P_LST_DATASET_XFER_ID_g, align 8
  %12 = icmp ne i64 %10, %11
  br i1 %12, label %13, label %37

13:                                               ; preds = %1
  %14 = load ptr, ptr %3, align 8
  %15 = load ptr, ptr %14, align 8
  %16 = getelementptr inbounds %struct.H5CX_node_t, ptr %15, i32 0, i32 0
  %17 = getelementptr inbounds %struct.H5CX_t, ptr %16, i32 0, i32 44
  %18 = load i8, ptr %17, align 8
  %19 = trunc i8 %18 to i1
  br i1 %19, label %37, label %20

20:                                               ; preds = %13
  %21 = load ptr, ptr %3, align 8
  %22 = load ptr, ptr %21, align 8
  %23 = getelementptr inbounds %struct.H5CX_node_t, ptr %22, i32 0, i32 0
  %24 = getelementptr inbounds %struct.H5CX_t, ptr %23, i32 0, i32 45
  %25 = load i8, ptr %24, align 1
  %26 = trunc i8 %25 to i1
  br i1 %26, label %37, label %27

27:                                               ; preds = %20
  %28 = load i32, ptr getelementptr inbounds (%struct.H5CX_dxpl_cache_t, ptr @H5CX_def_dxpl_cache, i32 0, i32 13), align 8
  %29 = load ptr, ptr %3, align 8
  %30 = load ptr, ptr %29, align 8
  %31 = getelementptr inbounds %struct.H5CX_node_t, ptr %30, i32 0, i32 0
  %32 = getelementptr inbounds %struct.H5CX_t, ptr %31, i32 0, i32 43
  store i32 %28, ptr %32, align 4
  %33 = load ptr, ptr %3, align 8
  %34 = load ptr, ptr %33, align 8
  %35 = getelementptr inbounds %struct.H5CX_node_t, ptr %34, i32 0, i32 0
  %36 = getelementptr inbounds %struct.H5CX_t, ptr %35, i32 0, i32 44
  store i8 1, ptr %36, align 8
  br label %37

37:                                               ; preds = %27, %20, %13, %1
  %38 = load ptr, ptr %3, align 8
  %39 = load ptr, ptr %38, align 8
  %40 = getelementptr inbounds %struct.H5CX_node_t, ptr %39, i32 0, i32 0
  %41 = getelementptr inbounds %struct.H5CX_t, ptr %40, i32 0, i32 45
  %42 = load i8, ptr %41, align 1
  %43 = trunc i8 %42 to i1
  br i1 %43, label %132, label %44

44:                                               ; preds = %37
  %45 = load ptr, ptr %3, align 8
  %46 = load ptr, ptr %45, align 8
  %47 = getelementptr inbounds %struct.H5CX_node_t, ptr %46, i32 0, i32 0
  %48 = getelementptr inbounds %struct.H5CX_t, ptr %47, i32 0, i32 44
  %49 = load i8, ptr %48, align 8
  %50 = trunc i8 %49 to i1
  br i1 %50, label %132, label %51

51:                                               ; preds = %44
  %52 = load ptr, ptr %3, align 8
  %53 = load ptr, ptr %52, align 8
  %54 = getelementptr inbounds %struct.H5CX_node_t, ptr %53, i32 0, i32 0
  %55 = getelementptr inbounds %struct.H5CX_t, ptr %54, i32 0, i32 0
  %56 = load i64, ptr %55, align 8
  %57 = load i64, ptr @H5P_LST_DATASET_XFER_ID_g, align 8
  %58 = icmp eq i64 %56, %57
  br i1 %58, label %59, label %64

59:                                               ; preds = %51
  %60 = load ptr, ptr %3, align 8
  %61 = load ptr, ptr %60, align 8
  %62 = getelementptr inbounds %struct.H5CX_node_t, ptr %61, i32 0, i32 0
  %63 = getelementptr inbounds %struct.H5CX_t, ptr %62, i32 0, i32 43
  call void @llvm.memcpy.p0.p0.i64(ptr align 4 %63, ptr align 8 getelementptr inbounds (%struct.H5CX_dxpl_cache_t, ptr @H5CX_def_dxpl_cache, i32 0, i32 13), i64 4, i1 false)
  br label %127

64:                                               ; preds = %51
  %65 = load ptr, ptr %3, align 8
  %66 = load ptr, ptr %65, align 8
  %67 = getelementptr inbounds %struct.H5CX_node_t, ptr %66, i32 0, i32 0
  %68 = getelementptr inbounds %struct.H5CX_t, ptr %67, i32 0, i32 1
  %69 = load ptr, ptr %68, align 8
  %70 = icmp eq ptr null, %69
  br i1 %70, label %71, label %99

71:                                               ; preds = %64
  %72 = load ptr, ptr %3, align 8
  %73 = load ptr, ptr %72, align 8
  %74 = getelementptr inbounds %struct.H5CX_node_t, ptr %73, i32 0, i32 0
  %75 = getelementptr inbounds %struct.H5CX_t, ptr %74, i32 0, i32 0
  %76 = load i64, ptr %75, align 8
  %77 = call ptr @H5I_object(i64 noundef %76)
  %78 = load ptr, ptr %3, align 8
  %79 = load ptr, ptr %78, align 8
  %80 = getelementptr inbounds %struct.H5CX_node_t, ptr %79, i32 0, i32 0
  %81 = getelementptr inbounds %struct.H5CX_t, ptr %80, i32 0, i32 1
  store ptr %77, ptr %81, align 8
  %82 = icmp eq ptr null, %77
  br i1 %82, label %83, label %98

83:                                               ; preds = %71
  br label %84

84:                                               ; preds = %83
  br label %85

85:                                               ; preds = %84
  br label %86

86:                                               ; preds = %85
  %87 = load i64, ptr @H5E_CONTEXT_g, align 8
  %88 = load i64, ptr @H5E_BADTYPE_g, align 8
  %89 = call i32 (ptr, ptr, i32, i64, i64, ptr, ...) @H5E_printf_stack(ptr noundef @.str, ptr noundef @__func__.H5CX_get_actual_selection_io_mode, i32 noundef 2583, i64 noundef %87, i64 noundef %88, ptr noundef @.str.56)
  br label %90

90:                                               ; preds = %86
  store i8 1, ptr %5, align 1
  %91 = load i8, ptr %5, align 1
  %92 = trunc i8 %91 to i1
  %93 = zext i1 %92 to i8
  store i8 %93, ptr %5, align 1
  br label %94

94:                                               ; preds = %90
  br label %95

95:                                               ; preds = %94
  store i32 -1, ptr %4, align 4
  br label %139

96:                                               ; No predecessors!
  br label %97

97:                                               ; preds = %96
  br label %98

98:                                               ; preds = %97, %71
  br label %99

99:                                               ; preds = %98, %64
  %100 = load ptr, ptr %3, align 8
  %101 = load ptr, ptr %100, align 8
  %102 = getelementptr inbounds %struct.H5CX_node_t, ptr %101, i32 0, i32 0
  %103 = getelementptr inbounds %struct.H5CX_t, ptr %102, i32 0, i32 1
  %104 = load ptr, ptr %103, align 8
  %105 = load ptr, ptr %3, align 8
  %106 = load ptr, ptr %105, align 8
  %107 = getelementptr inbounds %struct.H5CX_node_t, ptr %106, i32 0, i32 0
  %108 = getelementptr inbounds %struct.H5CX_t, ptr %107, i32 0, i32 43
  %109 = call i32 @H5P_get(ptr noundef %104, ptr noundef @.str.31, ptr noundef %108)
  %110 = icmp slt i32 %109, 0
  br i1 %110, label %111, label %126

111:                                              ; preds = %99
  br label %112

112:                                              ; preds = %111
  br label %113

113:                                              ; preds = %112
  br label %114

114:                                              ; preds = %113
  %115 = load i64, ptr @H5E_CONTEXT_g, align 8
  %116 = load i64, ptr @H5E_CANTGET_g, align 8
  %117 = call i32 (ptr, ptr, i32, i64, i64, ptr, ...) @H5E_printf_stack(ptr noundef @.str, ptr noundef @__func__.H5CX_get_actual_selection_io_mode, i32 noundef 2583, i64 noundef %115, i64 noundef %116, ptr noundef @.str.75)
  br label %118

118:                                              ; preds = %114
  store i8 1, ptr %5, align 1
  %119 = load i8, ptr %5, align 1
  %120 = trunc i8 %119 to i1
  %121 = zext i1 %120 to i8
  store i8 %121, ptr %5, align 1
  br label %122

122:                                              ; preds = %118
  br label %123

123:                                              ; preds = %122
  store i32 -1, ptr %4, align 4
  br label %139

124:                                              ; No predecessors!
  br label %125

125:                                              ; preds = %124
  br label %126

126:                                              ; preds = %125, %99
  br label %127

127:                                              ; preds = %126, %59
  %128 = load ptr, ptr %3, align 8
  %129 = load ptr, ptr %128, align 8
  %130 = getelementptr inbounds %struct.H5CX_node_t, ptr %129, i32 0, i32 0
  %131 = getelementptr inbounds %struct.H5CX_t, ptr %130, i32 0, i32 45
  store i8 1, ptr %131, align 1
  br label %132

132:                                              ; preds = %127, %44, %37
  %133 = load ptr, ptr %3, align 8
  %134 = load ptr, ptr %133, align 8
  %135 = getelementptr inbounds %struct.H5CX_node_t, ptr %134, i32 0, i32 0
  %136 = getelementptr inbounds %struct.H5CX_t, ptr %135, i32 0, i32 43
  %137 = load i32, ptr %136, align 4
  %138 = load ptr, ptr %2, align 8
  store i32 %137, ptr %138, align 4
  br label %139

139:                                              ; preds = %132, %123, %95
  %140 = load i32, ptr %4, align 4
  ret i32 %140
}