; Function Attrs: nounwind uwtable
define range(i32 -1, 1) i32 @H5CX_get_actual_selection_io_mode(ptr nocapture noundef writeonly %0) local_unnamed_addr #0 {
  %2 = load ptr, ptr @H5CX_head_g, align 8
  %3 = load i64, ptr %2, align 8
  %4 = load i64, ptr @H5P_LST_DATASET_XFER_ID_g, align 8
  %.not = icmp eq i64 %3, %4
  br i1 %.not, label %16, label %5

5:                                                ; preds = %1
  %6 = getelementptr inbounds i8, ptr %2, i64 344
  %7 = load i8, ptr %6, align 8
  %8 = trunc i8 %7 to i1
  br i1 %8, label %16, label %9

9:                                                ; preds = %5
  %10 = getelementptr inbounds i8, ptr %2, i64 345
  %11 = load i8, ptr %10, align 1
  %12 = trunc i8 %11 to i1
  br i1 %12, label %16, label %13

13:                                               ; preds = %9
  %14 = load i32, ptr getelementptr inbounds (i8, ptr @H5CX_def_dxpl_cache, i64 152), align 8
  %15 = getelementptr inbounds i8, ptr %2, i64 340
  store i32 %14, ptr %15, align 4
  store i8 1, ptr %6, align 8
  br label %16

16:                                               ; preds = %13, %9, %5, %1
  %17 = getelementptr inbounds i8, ptr %2, i64 345
  %18 = load i8, ptr %17, align 1
  %19 = trunc i8 %18 to i1
  br i1 %19, label %54, label %20

20:                                               ; preds = %16
  %21 = getelementptr inbounds i8, ptr %2, i64 344
  %22 = load i8, ptr %21, align 8
  %23 = trunc i8 %22 to i1
  br i1 %23, label %54, label %24

24:                                               ; preds = %20
  br i1 %.not, label %25, label %28

25:                                               ; preds = %24
  %26 = getelementptr inbounds i8, ptr %2, i64 340
  %27 = load i32, ptr getelementptr inbounds (i8, ptr @H5CX_def_dxpl_cache, i64 152), align 8
  store i32 %27, ptr %26, align 4
  br label %51

28:                                               ; preds = %24
  %29 = getelementptr inbounds i8, ptr %2, i64 8
  %30 = load ptr, ptr %29, align 8
  %31 = icmp eq ptr %30, null
  br i1 %31, label %32, label %41

32:                                               ; preds = %28
  %33 = tail call ptr @H5I_object(i64 noundef %3) #13
  %34 = load ptr, ptr @H5CX_head_g, align 8
  %35 = getelementptr inbounds i8, ptr %34, i64 8
  store ptr %33, ptr %35, align 8
  %36 = icmp eq ptr %33, null
  br i1 %36, label %37, label %41

37:                                               ; preds = %32
  %38 = load i64, ptr @H5E_CONTEXT_g, align 8
  %39 = load i64, ptr @H5E_BADTYPE_g, align 8
  %40 = tail call i32 (ptr, ptr, i32, i64, i64, ptr, ...) @H5E_printf_stack(ptr noundef nonnull @.str, ptr noundef nonnull @__func__.H5CX_get_actual_selection_io_mode, i32 noundef 2583, i64 noundef %38, i64 noundef %39, ptr noundef nonnull @.str.56) #13
  br label %58

41:                                               ; preds = %32, %28
  %42 = phi ptr [ %33, %32 ], [ %30, %28 ]
  %43 = phi ptr [ %34, %32 ], [ %2, %28 ]
  %44 = getelementptr inbounds i8, ptr %43, i64 340
  %45 = tail call i32 @H5P_get(ptr noundef nonnull %42, ptr noundef nonnull @.str.31, ptr noundef nonnull %44) #13
  %46 = icmp slt i32 %45, 0
  br i1 %46, label %47, label %._crit_edge

._crit_edge:                                      ; preds = %41
  %.pre = load ptr, ptr @H5CX_head_g, align 8
  br label %51

47:                                               ; preds = %41
  %48 = load i64, ptr @H5E_CONTEXT_g, align 8
  %49 = load i64, ptr @H5E_CANTGET_g, align 8
  %50 = tail call i32 (ptr, ptr, i32, i64, i64, ptr, ...) @H5E_printf_stack(ptr noundef nonnull @.str, ptr noundef nonnull @__func__.H5CX_get_actual_selection_io_mode, i32 noundef 2583, i64 noundef %48, i64 noundef %49, ptr noundef nonnull @.str.75) #13
  br label %58

51:                                               ; preds = %._crit_edge, %25
  %52 = phi ptr [ %.pre, %._crit_edge ], [ %2, %25 ]
  %53 = getelementptr inbounds i8, ptr %52, i64 345
  store i8 1, ptr %53, align 1
  br label %54

54:                                               ; preds = %51, %20, %16
  %55 = phi ptr [ %52, %51 ], [ %2, %20 ], [ %2, %16 ]
  %56 = getelementptr inbounds i8, ptr %55, i64 340
  %57 = load i32, ptr %56, align 4
  store i32 %57, ptr %0, align 4
  br label %58

58:                                               ; preds = %54, %47, %37
  %.0 = phi i32 [ 0, %54 ], [ -1, %37 ], [ -1, %47 ]
  ret i32 %.0
}